target datalayout = "e-m:e-p270:32:32-p271:32:32-p272:64:64-i64:64-i128:128-f80:128-n8:16:32:64-S128"
target triple = "x86_64-pc-linux-gnu"

%struct._lv_spinbox_t = type { %struct._lv_textarea_t, i32, i32, i32, i32, i16 }
%struct._lv_textarea_t = type { %struct._lv_obj_t, ptr, ptr, ptr, ptr, ptr, i32, i32, %struct.anon, i32, i32, i8 }
%struct._lv_obj_t = type { ptr, ptr, ptr, ptr, ptr, %struct.lv_area_t, i32, i16, i16 }
%struct.lv_area_t = type { i32, i32, i32, i32 }
%struct.anon = type { i32, i32, %struct.lv_area_t, i32, i8 }

; Function Attrs: nounwind uwtable
define void @lv_spinbox_set_range(ptr noundef %0, i32 noundef %1, i32 noundef %2) #0 {
  %4 = alloca ptr, align 8
  %5 = alloca i32, align 4
  %6 = alloca i32, align 4
  %7 = alloca ptr, align 8
  store ptr %0, ptr %4, align 8, !tbaa !3
  store i32 %1, ptr %5, align 4, !tbaa !18
  store i32 %2, ptr %6, align 4, !tbaa !18
  br label %8

8:                                                ; preds = %3
  br label %9

9:                                                ; preds = %8
  call void @llvm.lifetime.start.p0(i64 8, ptr %7) #4
  %10 = load ptr, ptr %4, align 8, !tbaa !3
  store ptr %10, ptr %7, align 8, !tbaa !3
  %11 = load i32, ptr %6, align 4, !tbaa !18
  %12 = load ptr, ptr %7, align 8, !tbaa !3
  %13 = getelementptr inbounds nuw %struct._lv_spinbox_t, ptr %12, i32 0, i32 2
  store i32 %11, ptr %13, align 4, !tbaa !16
  %14 = load i32, ptr %5, align 4, !tbaa !18
  %15 = load ptr, ptr %7, align 8, !tbaa !3
  %16 = getelementptr inbounds nuw %struct._lv_spinbox_t, ptr %15, i32 0, i32 3
  store i32 %14, ptr %16, align 8, !tbaa !17
  %17 = load ptr, ptr %7, align 8, !tbaa !3
  %18 = getelementptr inbounds nuw %struct._lv_spinbox_t, ptr %17, i32 0, i32 1
  %19 = load i32, ptr %18, align 8, !tbaa !7
  %20 = load ptr, ptr %7, align 8, !tbaa !3
  %21 = getelementptr inbounds nuw %struct._lv_spinbox_t, ptr %20, i32 0, i32 2
  %22 = load i32, ptr %21, align 4, !tbaa !16
  %23 = icmp sgt i32 %19, %22
  br i1 %23, label %24, label %30

24:                                               ; preds = %9
  %25 = load ptr, ptr %7, align 8, !tbaa !3
  %26 = getelementptr inbounds nuw %struct._lv_spinbox_t, ptr %25, i32 0, i32 2
  %27 = load i32, ptr %26, align 4, !tbaa !16
  %28 = load ptr, ptr %7, align 8, !tbaa !3
  %29 = getelementptr inbounds nuw %struct._lv_spinbox_t, ptr %28, i32 0, i32 1
  store i32 %27, ptr %29, align 8, !tbaa !7
  br label %30

30:                                               ; preds = %24, %9
  %31 = load ptr, ptr %7, align 8, !tbaa !3
  %32 = getelementptr inbounds nuw %struct._lv_spinbox_t, ptr %31, i32 0, i32 1
  %33 = load i32, ptr %32, align 8, !tbaa !7
  %34 = load ptr, ptr %7, align 8, !tbaa !3
  %35 = getelementptr inbounds nuw %struct._lv_spinbox_t, ptr %34, i32 0, i32 3
  %36 = load i32, ptr %35, align 8, !tbaa !17
  %37 = icmp slt i32 %33, %36
  br i1 %37, label %38, label %44

38:                                               ; preds = %30
  %39 = load ptr, ptr %7, align 8, !tbaa !3
  %40 = getelementptr inbounds nuw %struct._lv_spinbox_t, ptr %39, i32 0, i32 3
  %41 = load i32, ptr %40, align 8, !tbaa !17
  %42 = load ptr, ptr %7, align 8, !tbaa !3
  %43 = getelementptr inbounds nuw %struct._lv_spinbox_t, ptr %42, i32 0, i32 1
  store i32 %41, ptr %43, align 8, !tbaa !7
  br label %44

44:                                               ; preds = %38, %30
  %45 = load ptr, ptr %4, align 8, !tbaa !3
  call void @lv_spinbox_updatevalue(ptr noundef %45)
  call void @llvm.lifetime.end.p0(i64 8, ptr %7) #4
  ret void
}