; Function Attrs: nounwind uwtable
define void @lv_spinbox_set_range(ptr noundef %0, i32 noundef %1, i32 noundef %2) local_unnamed_addr #0 {
  %4 = getelementptr inbounds nuw i8, ptr %0, i64 164
  store i32 %2, ptr %4, align 4, !tbaa !15
  %5 = getelementptr inbounds nuw i8, ptr %0, i64 168
  store i32 %1, ptr %5, align 8, !tbaa !16
  %6 = getelementptr inbounds nuw i8, ptr %0, i64 160
  %7 = load i32, ptr %6, align 8, !tbaa !3
  %.not = icmp sgt i32 %7, %2
  %8 = tail call i32 @llvm.smin.i32(i32 %7, i32 %2)
  %.not14 = icmp slt i32 %8, %1
  %9 = or i1 %.not, %.not14
  br i1 %9, label %10, label %11

10:                                               ; preds = %3
  %simplifycfg.merge = tail call i32 @llvm.smax.i32(i32 %8, i32 %1)
  store i32 %simplifycfg.merge, ptr %6, align 8, !tbaa !3
  br label %11

11:                                               ; preds = %3, %10
  tail call fastcc void @lv_spinbox_updatevalue(ptr noundef nonnull %0)
  ret void
}